; ModuleID = '49/653.cpp'
source_filename = "49/653.cpp"
target datalayout = "e-m:e-p270:32:32-p271:32:32-p272:64:64-i64:64-f80:128-n8:16:32:64-S128"
target triple = "x86_64-pc-linux-gnu"

%"class.std::ios_base::Init" = type { i8 }
%"class.std::basic_istream" = type { i32 (...)**, i64, %"class.std::basic_ios" }
%"class.std::basic_ios" = type { %"class.std::ios_base", %"class.std::basic_ostream"*, i8, i8, %"class.std::basic_streambuf"*, %"class.std::ctype"*, %"class.std::num_put"*, %"class.std::num_get"* }
%"class.std::ios_base" = type { i32 (...)**, i64, i64, i32, i32, i32, %"struct.std::ios_base::_Callback_list"*, %"struct.std::ios_base::_Words", [8 x %"struct.std::ios_base::_Words"], i32, %"struct.std::ios_base::_Words"*, %"class.std::locale" }
%"struct.std::ios_base::_Callback_list" = type { %"struct.std::ios_base::_Callback_list"*, void (i32, %"class.std::ios_base"*, i32)*, i32, i32 }
%"struct.std::ios_base::_Words" = type { i8*, i64 }
%"class.std::locale" = type { %"class.std::locale::_Impl"* }
%"class.std::locale::_Impl" = type { i32, %"class.std::locale::facet"**, i64, %"class.std::locale::facet"**, i8** }
%"class.std::locale::facet" = type <{ i32 (...)**, i32, [4 x i8] }>
%"class.std::basic_ostream" = type { i32 (...)**, %"class.std::basic_ios" }
%"class.std::basic_streambuf" = type { i32 (...)**, i8*, i8*, i8*, i8*, i8*, i8*, %"class.std::locale" }
%"class.std::ctype" = type <{ %"class.std::locale::facet.base", [4 x i8], %struct.__locale_struct*, i8, [7 x i8], i32*, i32*, i16*, i8, [256 x i8], [256 x i8], i8, [6 x i8] }>
%"class.std::locale::facet.base" = type <{ i32 (...)**, i32 }>
%struct.__locale_struct = type { [13 x %struct.__locale_data*], i16*, i32*, i32*, [13 x i8*] }
%struct.__locale_data = type opaque
%"class.std::num_put" = type { %"class.std::locale::facet.base", [4 x i8] }
%"class.std::num_get" = type { %"class.std::locale::facet.base", [4 x i8] }

@_ZStL8__ioinit = internal global %"class.std::ios_base::Init" zeroinitializer, align 1
@__dso_handle = external hidden global i8
@_ZSt3cin = external dso_local global %"class.std::basic_istream", align 8
@_ZSt4cout = external dso_local global %"class.std::basic_ostream", align 8
@llvm.global_ctors = appending global [1 x { i32, void ()*, i8* }] [{ i32, void ()*, i8* } { i32 65535, void ()* @_GLOBAL__sub_I_653.cpp, i8* null }]

; Function Attrs: noinline uwtable
define internal void @__cxx_global_var_init() #0 section ".text.startup" {
  call void @_ZNSt8ios_base4InitC1Ev(%"class.std::ios_base::Init"* @_ZStL8__ioinit)
  %1 = call i32 @__cxa_atexit(void (i8*)* bitcast (void (%"class.std::ios_base::Init"*)* @_ZNSt8ios_base4InitD1Ev to void (i8*)*), i8* getelementptr inbounds (%"class.std::ios_base::Init", %"class.std::ios_base::Init"* @_ZStL8__ioinit, i32 0, i32 0), i8* @__dso_handle) #3
  ret void
}

declare dso_local void @_ZNSt8ios_base4InitC1Ev(%"class.std::ios_base::Init"*) unnamed_addr #1

; Function Attrs: nounwind
declare dso_local void @_ZNSt8ios_base4InitD1Ev(%"class.std::ios_base::Init"*) unnamed_addr #2

; Function Attrs: nounwind
declare dso_local i32 @__cxa_atexit(void (i8*)*, i8*, i8*) #3

; Function Attrs: noinline norecurse uwtable
define dso_local i32 @main() #4 {
  %1 = alloca i32, align 4
  %2 = alloca i32, align 4
  %3 = alloca [510 x i32], align 16
  %4 = alloca [510 x i32], align 16
  %5 = alloca i32, align 4
  %6 = alloca i32, align 4
  %7 = alloca i32, align 4
  %8 = alloca [510 x i8], align 16
  %9 = alloca i8, align 1
  %10 = alloca i32, align 4
  %11 = alloca i32, align 4
  %12 = alloca i32, align 4
  %13 = alloca i32, align 4
  store i32 0, i32* %1, align 4
  store i32 0, i32* %2, align 4
  store i32 0, i32* %7, align 4
  br label %14

14:                                               ; preds = %18, %0
  %15 = load i8, i8* %9, align 1
  %16 = sext i8 %15 to i32
  %17 = icmp ne i32 %16, 10
  br i1 %17, label %18, label %25

18:                                               ; preds = %14
  %19 = call dereferenceable(280) %"class.std::basic_istream"* @_ZNSi3getERc(%"class.std::basic_istream"* @_ZSt3cin, i8* dereferenceable(1) %9)
  %20 = load i8, i8* %9, align 1
  %21 = load i32, i32* %2, align 4
  %22 = add nsw i32 %21, 1
  store i32 %22, i32* %2, align 4
  %23 = sext i32 %21 to i64
  %24 = getelementptr inbounds [510 x i8], [510 x i8]* %8, i64 0, i64 %23
  store i8 %20, i8* %24, align 1
  br label %14

25:                                               ; preds = %14
  store i32 2, i32* %10, align 4
  br label %26

26:                                               ; preds = %108, %25
  %27 = load i32, i32* %10, align 4
  %28 = load i32, i32* %2, align 4
  %29 = sub nsw i32 %28, 1
  %30 = icmp sle i32 %27, %29
  br i1 %30, label %31, label %111

31:                                               ; preds = %26
  store i32 0, i32* %11, align 4
  br label %32

32:                                               ; preds = %104, %31
  %33 = load i32, i32* %11, align 4
  %34 = load i32, i32* %2, align 4
  %35 = sub nsw i32 %34, 3
  %36 = icmp sle i32 %33, %35
  br i1 %36, label %37, label %107

37:                                               ; preds = %32
  store i32 0, i32* %12, align 4
  br label %38

38:                                               ; preds = %100, %37
  %39 = load i32, i32* %12, align 4
  %40 = load i32, i32* %10, align 4
  %41 = sub nsw i32 %40, 1
  %42 = icmp sle i32 %39, %41
  br i1 %42, label %43, label %103

43:                                               ; preds = %38
  %44 = load i32, i32* %11, align 4
  %45 = load i32, i32* %12, align 4
  %46 = add nsw i32 %44, %45
  %47 = load i32, i32* %2, align 4
  %48 = sub nsw i32 %47, 2
  %49 = icmp sle i32 %46, %48
  br i1 %49, label %50, label %58

50:                                               ; preds = %43
  %51 = load i32, i32* %11, align 4
  %52 = load i32, i32* %12, align 4
  %53 = add nsw i32 %51, %52
  %54 = sext i32 %53 to i64
  %55 = getelementptr inbounds [510 x i8], [510 x i8]* %8, i64 0, i64 %54
  %56 = load i8, i8* %55, align 1
  %57 = sext i8 %56 to i32
  store i32 %57, i32* %5, align 4
  br label %58

58:                                               ; preds = %50, %43
  %59 = load i32, i32* %11, align 4
  %60 = load i32, i32* %10, align 4
  %61 = add nsw i32 %59, %60
  %62 = sub nsw i32 %61, 1
  %63 = load i32, i32* %12, align 4
  %64 = sub nsw i32 %62, %63
  %65 = sext i32 %64 to i64
  %66 = getelementptr inbounds [510 x i8], [510 x i8]* %8, i64 0, i64 %65
  %67 = load i8, i8* %66, align 1
  %68 = sext i8 %67 to i32
  store i32 %68, i32* %6, align 4
  %69 = load i32, i32* %5, align 4
  %70 = load i32, i32* %6, align 4
  %71 = icmp eq i32 %69, %70
  br i1 %71, label %72, label %75

72:                                               ; preds = %58
  %73 = load i32, i32* %7, align 4
  %74 = add nsw i32 %73, 1
  store i32 %74, i32* %7, align 4
  br label %75

75:                                               ; preds = %72, %58
  %76 = load i32, i32* %7, align 4
  %77 = load i32, i32* %10, align 4
  %78 = icmp eq i32 %76, %77
  br i1 %78, label %79, label %99

79:                                               ; preds = %75
  %80 = load i32, i32* %11, align 4
  store i32 %80, i32* %13, align 4
  br label %81

81:                                               ; preds = %94, %79
  %82 = load i32, i32* %13, align 4
  %83 = load i32, i32* %11, align 4
  %84 = load i32, i32* %10, align 4
  %85 = add nsw i32 %83, %84
  %86 = sub nsw i32 %85, 1
  %87 = icmp sle i32 %82, %86
  br i1 %87, label %88, label %97

88:                                               ; preds = %81
  %89 = load i32, i32* %13, align 4
  %90 = sext i32 %89 to i64
  %91 = getelementptr inbounds [510 x i8], [510 x i8]* %8, i64 0, i64 %90
  %92 = load i8, i8* %91, align 1
  %93 = call dereferenceable(272) %"class.std::basic_ostream"* @_ZStlsISt11char_traitsIcEERSt13basic_ostreamIcT_ES5_c(%"class.std::basic_ostream"* dereferenceable(272) @_ZSt4cout, i8 signext %92)
  br label %94

94:                                               ; preds = %88
  %95 = load i32, i32* %13, align 4
  %96 = add nsw i32 %95, 1
  store i32 %96, i32* %13, align 4
  br label %81

97:                                               ; preds = %81
  %98 = call dereferenceable(272) %"class.std::basic_ostream"* @_ZStlsISt11char_traitsIcEERSt13basic_ostreamIcT_ES5_c(%"class.std::basic_ostream"* dereferenceable(272) @_ZSt4cout, i8 signext 10)
  br label %99

99:                                               ; preds = %97, %75
  br label %100

100:                                              ; preds = %99
  %101 = load i32, i32* %12, align 4
  %102 = add nsw i32 %101, 1
  store i32 %102, i32* %12, align 4
  br label %38

103:                                              ; preds = %38
  store i32 0, i32* %7, align 4
  br label %104

104:                                              ; preds = %103
  %105 = load i32, i32* %11, align 4
  %106 = add nsw i32 %105, 1
  store i32 %106, i32* %11, align 4
  br label %32

107:                                              ; preds = %32
  br label %108

108:                                              ; preds = %107
  %109 = load i32, i32* %10, align 4
  %110 = add nsw i32 %109, 1
  store i32 %110, i32* %10, align 4
  br label %26

111:                                              ; preds = %26
  ret i32 0
}

declare dso_local dereferenceable(280) %"class.std::basic_istream"* @_ZNSi3getERc(%"class.std::basic_istream"*, i8* dereferenceable(1)) #1

declare dso_local dereferenceable(272) %"class.std::basic_ostream"* @_ZStlsISt11char_traitsIcEERSt13basic_ostreamIcT_ES5_c(%"class.std::basic_ostream"* dereferenceable(272), i8 signext) #1

; Function Attrs: noinline uwtable
define internal void @_GLOBAL__sub_I_653.cpp() #0 section ".text.startup" {
  call void @__cxx_global_var_init()
  ret void
}


!llvm.module.flags = !{!0}
!llvm.ident = !{!1}

!0 = !{i32 1, !"wchar_size", i32 4}
!1 = !{!"clang version 10.0.0-4ubuntu1 "}
