; ModuleID = 'source-C-CXX/48/653.cpp'
source_filename = "source-C-CXX/48/653.cpp"
target datalayout = "e-m:e-p270:32:32-p271:32:32-p272:64:64-i64:64-f80:128-n8:16:32:64-S128"
target triple = "x86_64-pc-linux-gnu"

%"class.std::ios_base::Init" = type { i8 }
%"class.std::basic_istream" = type { i32 (...)**, i64, %"class.std::basic_ios" }
%"class.std::basic_ios" = type { %"class.std::ios_base", %"class.std::basic_ostream"*, i8, i8, %"class.std::basic_streambuf"*, %"class.std::ctype"*, %"class.std::num_put"*, %"class.std::num_get"* }
%"class.std::ios_base" = type { i32 (...)**, i64, i64, i32, i32, i32, %"struct.std::ios_base::_Callback_list"*, %"struct.std::ios_base::_Words", [8 x %"struct.std::ios_base::_Words"], i32, %"struct.std::ios_base::_Words"*, %"class.std::locale" }
%"struct.std::ios_base::_Callback_list" = type { %"struct.std::ios_base::_Callback_list"*, void (i32, %"class.std::ios_base"*, i32)*, i32, i32 }
%"struct.std::ios_base::_Words" = type { i8*, i64 }
%"class.std::locale" = type { %"class.std::locale::_Impl"* }
%"class.std::locale::_Impl" = type { i32, %"class.std::locale::facet"**, i64, %"class.std::locale::facet"**, i8** }
%"class.std::locale::facet" = type <{ i32 (...)**, i32, [4 x i8] }>
%"class.std::basic_ostream" = type { i32 (...)**, %"class.std::basic_ios" }
%"class.std::basic_streambuf" = type { i32 (...)**, i8*, i8*, i8*, i8*, i8*, i8*, %"class.std::locale" }
%"class.std::ctype" = type <{ %"class.std::locale::facet.base", [4 x i8], %struct.__locale_struct*, i8, [7 x i8], i32*, i32*, i16*, i8, [256 x i8], [256 x i8], i8, [6 x i8] }>
%"class.std::locale::facet.base" = type <{ i32 (...)**, i32 }>
%struct.__locale_struct = type { [13 x %struct.__locale_data*], i16*, i32*, i32*, [13 x i8*] }
%struct.__locale_data = type opaque
%"class.std::num_put" = type { %"class.std::locale::facet.base", [4 x i8] }
%"class.std::num_get" = type { %"class.std::locale::facet.base", [4 x i8] }

@_ZStL8__ioinit = internal global %"class.std::ios_base::Init" zeroinitializer, align 1
@__dso_handle = external hidden global i8
@_ZSt3cin = external global %"class.std::basic_istream", align 8
@_ZSt4cout = external global %"class.std::basic_ostream", align 8
@llvm.global_ctors = appending global [1 x { i32, void ()*, i8* }] [{ i32, void ()*, i8* } { i32 65535, void ()* @_GLOBAL__sub_I_653.cpp, i8* null }]

declare void @_ZNSt8ios_base4InitC1Ev(%"class.std::ios_base::Init"* nonnull align 1 dereferenceable(1)) unnamed_addr #0

; Function Attrs: nounwind
declare void @_ZNSt8ios_base4InitD1Ev(%"class.std::ios_base::Init"* nonnull align 1 dereferenceable(1)) unnamed_addr #1

; Function Attrs: nofree nounwind
declare i32 @__cxa_atexit(void (i8*)*, i8*, i8*) local_unnamed_addr #2

; Function Attrs: mustprogress norecurse sspstrong uwtable
define dso_local i32 @main() local_unnamed_addr #3 {
  %1 = alloca i8, align 1
  %2 = alloca i8, align 1
  %3 = alloca [510 x i8], align 16
  %4 = alloca i8, align 1
  %5 = getelementptr inbounds [510 x i8], [510 x i8]* %3, i64 0, i64 0
  call void @llvm.lifetime.start.p0i8(i64 510, i8* nonnull %5) #6
  call void @llvm.lifetime.start.p0i8(i64 1, i8* nonnull %4) #6
  br label %14

6:                                                ; preds = %14
  %7 = trunc i64 %18 to i32
  %8 = add i32 %7, -2
  %9 = icmp slt i32 %7, 3
  br i1 %9, label %71, label %10

10:                                               ; preds = %6
  %11 = zext i32 %8 to i64
  %12 = and i64 %18, 4294967295
  %13 = zext i32 %8 to i64
  br label %21

14:                                               ; preds = %0, %14
  %15 = phi i64 [ 0, %0 ], [ %18, %14 ]
  %16 = call nonnull align 8 dereferenceable(16) %"class.std::basic_istream"* @_ZNSi3getERc(%"class.std::basic_istream"* nonnull align 8 dereferenceable(16) @_ZSt3cin, i8* nonnull align 1 dereferenceable(1) %4)
  %17 = load i8, i8* %4, align 1, !tbaa !5
  %18 = add nuw i64 %15, 1
  %19 = getelementptr inbounds [510 x i8], [510 x i8]* %3, i64 0, i64 %15
  store i8 %17, i8* %19, align 1, !tbaa !5
  %20 = icmp eq i8 %17, 10
  br i1 %20, label %6, label %14, !llvm.loop !8

21:                                               ; preds = %10, %68
  %22 = phi i64 [ 2, %10 ], [ %69, %68 ]
  %23 = phi i32 [ undef, %10 ], [ %42, %68 ]
  br label %24

24:                                               ; preds = %21, %65
  %25 = phi i64 [ 0, %21 ], [ %66, %65 ]
  %26 = phi i32 [ %23, %21 ], [ %42, %65 ]
  %27 = add nuw nsw i64 %25, %22
  %28 = shl i64 %27, 32
  %29 = ashr exact i64 %28, 32
  br label %30

30:                                               ; preds = %24, %62
  %31 = phi i64 [ 0, %24 ], [ %63, %62 ]
  %32 = phi i32 [ 0, %24 ], [ %50, %62 ]
  %33 = phi i32 [ %26, %24 ], [ %42, %62 ]
  %34 = add nuw nsw i64 %31, %25
  %35 = icmp ugt i64 %34, %11
  br i1 %35, label %41, label %36

36:                                               ; preds = %30
  %37 = and i64 %34, 4294967295
  %38 = getelementptr inbounds [510 x i8], [510 x i8]* %3, i64 0, i64 %37
  %39 = load i8, i8* %38, align 1, !tbaa !5
  %40 = sext i8 %39 to i32
  br label %41

41:                                               ; preds = %36, %30
  %42 = phi i32 [ %40, %36 ], [ %33, %30 ]
  %43 = xor i64 %31, -1
  %44 = add nsw i64 %29, %43
  %45 = getelementptr inbounds [510 x i8], [510 x i8]* %3, i64 0, i64 %44
  %46 = load i8, i8* %45, align 1, !tbaa !5
  %47 = sext i8 %46 to i32
  %48 = icmp eq i32 %42, %47
  %49 = zext i1 %48 to i32
  %50 = add nuw nsw i32 %32, %49
  %51 = zext i32 %50 to i64
  %52 = icmp eq i64 %22, %51
  br i1 %52, label %55, label %62

53:                                               ; preds = %55
  call void @llvm.lifetime.start.p0i8(i64 1, i8* nonnull %2)
  store i8 10, i8* %2, align 1, !tbaa !5
  %54 = call nonnull align 8 dereferenceable(8) %"class.std::basic_ostream"* @_ZSt16__ostream_insertIcSt11char_traitsIcEERSt13basic_ostreamIT_T0_ES6_PKS3_l(%"class.std::basic_ostream"* nonnull align 8 dereferenceable(8) @_ZSt4cout, i8* nonnull %2, i64 1)
  call void @llvm.lifetime.end.p0i8(i64 1, i8* nonnull %2)
  br label %62

55:                                               ; preds = %41, %55
  %56 = phi i64 [ %60, %55 ], [ %25, %41 ]
  %57 = getelementptr inbounds [510 x i8], [510 x i8]* %3, i64 0, i64 %56
  %58 = load i8, i8* %57, align 1, !tbaa !5
  call void @llvm.lifetime.start.p0i8(i64 1, i8* nonnull %1)
  store i8 %58, i8* %1, align 1, !tbaa !5
  %59 = call nonnull align 8 dereferenceable(8) %"class.std::basic_ostream"* @_ZSt16__ostream_insertIcSt11char_traitsIcEERSt13basic_ostreamIT_T0_ES6_PKS3_l(%"class.std::basic_ostream"* nonnull align 8 dereferenceable(8) @_ZSt4cout, i8* nonnull %1, i64 1)
  call void @llvm.lifetime.end.p0i8(i64 1, i8* nonnull %1)
  %60 = add nuw nsw i64 %56, 1
  %61 = icmp ult i64 %60, %27
  br i1 %61, label %55, label %53, !llvm.loop !10

62:                                               ; preds = %41, %53
  %63 = add nuw nsw i64 %31, 1
  %64 = icmp eq i64 %63, %22
  br i1 %64, label %65, label %30, !llvm.loop !11

65:                                               ; preds = %62
  %66 = add nuw nsw i64 %25, 1
  %67 = icmp eq i64 %66, %13
  br i1 %67, label %68, label %24, !llvm.loop !12

68:                                               ; preds = %65
  %69 = add nuw nsw i64 %22, 1
  %70 = icmp eq i64 %69, %12
  br i1 %70, label %71, label %21, !llvm.loop !13

71:                                               ; preds = %68, %6
  call void @llvm.lifetime.end.p0i8(i64 1, i8* nonnull %4) #6
  call void @llvm.lifetime.end.p0i8(i64 510, i8* nonnull %5) #6
  ret i32 0
}

; Function Attrs: argmemonly mustprogress nofree nosync nounwind willreturn
declare void @llvm.lifetime.start.p0i8(i64 immarg, i8* nocapture) #4

declare nonnull align 8 dereferenceable(16) %"class.std::basic_istream"* @_ZNSi3getERc(%"class.std::basic_istream"* nonnull align 8 dereferenceable(16), i8* nonnull align 1 dereferenceable(1)) local_unnamed_addr #0

; Function Attrs: argmemonly mustprogress nofree nosync nounwind willreturn
declare void @llvm.lifetime.end.p0i8(i64 immarg, i8* nocapture) #4

declare nonnull align 8 dereferenceable(8) %"class.std::basic_ostream"* @_ZSt16__ostream_insertIcSt11char_traitsIcEERSt13basic_ostreamIT_T0_ES6_PKS3_l(%"class.std::basic_ostream"* nonnull align 8 dereferenceable(8), i8*, i64) local_unnamed_addr #0

; Function Attrs: sspstrong uwtable
define internal void @_GLOBAL__sub_I_653.cpp() #5 section ".text.startup" {
  tail call void @_ZNSt8ios_base4InitC1Ev(%"class.std::ios_base::Init"* nonnull align 1 dereferenceable(1) @_ZStL8__ioinit)
  %1 = tail call i32 @__cxa_atexit(void (i8*)* bitcast (void (%"class.std::ios_base::Init"*)* @_ZNSt8ios_base4InitD1Ev to void (i8*)*), i8* getelementptr inbounds (%"class.std::ios_base::Init", %"class.std::ios_base::Init"* @_ZStL8__ioinit, i64 0, i32 0), i8* nonnull @__dso_handle) #6
  ret void
}


!llvm.module.flags = !{!0, !1, !2, !3}
!llvm.ident = !{!4}

!0 = !{i32 1, !"wchar_size", i32 4}
!1 = !{i32 7, !"PIC Level", i32 2}
!2 = !{i32 7, !"PIE Level", i32 2}
!3 = !{i32 7, !"uwtable", i32 1}
!4 = !{!"clang version 13.0.0"}
!5 = !{!6, !6, i64 0}
!6 = !{!"omnipotent char", !7, i64 0}
!7 = !{!"Simple C++ TBAA"}
!8 = distinct !{!8, !9}
!9 = !{!"llvm.loop.mustprogress"}
!10 = distinct !{!10, !9}
!11 = distinct !{!11, !9}
!12 = distinct !{!12, !9}
!13 = distinct !{!13, !9}
